; Function Attrs: mustprogress nofree norecurse nosync nounwind willreturn memory(argmem: write) uwtable
define void @png_set_read_user_chunk_fn(ptr noalias noundef writeonly %0, ptr noundef %1, ptr noundef %2) local_unnamed_addr #7 {
  %4 = icmp eq ptr %0, null
  br i1 %4, label %8, label %5

5:                                                ; preds = %3
  %6 = getelementptr inbounds i8, ptr %0, i64 952
  store ptr %2, ptr %6, align 8
  %7 = getelementptr inbounds i8, ptr %0, i64 944
  store ptr %1, ptr %7, align 8
  br label %8

8:                                                ; preds = %3, %5
  ret void
}